target datalayout = "e-m:e-p270:32:32-p271:32:32-p272:64:64-i64:64-i128:128-f80:128-n8:16:32:64-S128"
target triple = "x86_64-pc-linux-gnu"

%"struct.icu_77::ConditionalCE32" = type <{ [8 x i8], %"class.icu_77::UnicodeString", i32, i32, i32, i32, i32, [4 x i8] }>
%"class.icu_77::UnicodeString" = type { %"class.icu_77::Replaceable", %"union.icu_77::UnicodeString::StackBufferOrFields" }
%"class.icu_77::Replaceable" = type { %"class.icu_77::UObject" }
%"class.icu_77::UObject" = type { ptr }
%"union.icu_77::UnicodeString::StackBufferOrFields" = type { %struct.anon.0, [32 x i8] }
%struct.anon.0 = type { i16, i32, i32, ptr }
%"class.icu_77::DataBuilderCollationIterator" = type <{ %"class.icu_77::CollationIterator.base", [3 x i8], ptr, %"struct.icu_77::CollationData", [67 x i32], [4 x i8], ptr, i32, [4 x i8] }>
%"class.icu_77::CollationIterator.base" = type <{ %"class.icu_77::UObject", ptr, ptr, %"class.icu_77::CollationIterator::CEBuffer", i32, [4 x i8], ptr, i32, i8 }>
%"class.icu_77::CollationIterator::CEBuffer" = type { i32, %"class.icu_77::MaybeStackArray" }
%"class.icu_77::MaybeStackArray" = type { ptr, i32, i8, [40 x i64] }
%"struct.icu_77::CollationData" = type <{ ptr, ptr, ptr, ptr, ptr, ptr, ptr, i32, i32, i32, i32, ptr, ptr, ptr, i32, i32, ptr, ptr, i32, [4 x i8], ptr, i32, [4 x i8] }>
%"class.icu_77::CollationDataBuilder" = type { %"class.icu_77::UObject", ptr, ptr, ptr, ptr, %"class.icu_77::UVector32", %"class.icu_77::UVector64", %"class.icu_77::UVector", %"class.icu_77::UnicodeSet", %"class.icu_77::UnicodeString", i32, [4 x i8], %"class.icu_77::UnicodeSet", i8, i8, i8, ptr, ptr }
%"class.icu_77::UVector32" = type { %"class.icu_77::UObject", i32, i32, i32, ptr }
%"class.icu_77::UVector64" = type { %"class.icu_77::UObject", i32, i32, i32, ptr }
%"class.icu_77::UVector" = type { %"class.icu_77::UObject", i32, i32, ptr, ptr, ptr }
%"class.icu_77::UnicodeSet" = type <{ %"class.icu_77::UnicodeFilter", ptr, i32, i32, i8, [7 x i8], ptr, ptr, i32, [4 x i8], ptr, i32, [4 x i8], ptr, ptr, [25 x i32], [4 x i8] }>
%"class.icu_77::UnicodeFilter" = type { %"class.icu_77::UnicodeFunctor", %"class.icu_77::UnicodeMatcher" }
%"class.icu_77::UnicodeFunctor" = type { %"class.icu_77::UObject" }
%"class.icu_77::UnicodeMatcher" = type { ptr }
%struct.anon = type { i16, [27 x i16] }

; Function Attrs: inlinehint mustprogress nounwind uwtable
define linkonce_odr void @_ZN6icu_7713UnicodeString13setZeroLengthEv(ptr noundef nonnull align 8 dereferenceable(64) %0) #3 comdat align 2 {
  %2 = alloca ptr, align 8
  store ptr %0, ptr %2, align 8, !tbaa !92
  %3 = load ptr, ptr %2, align 8
  %4 = getelementptr inbounds nuw %"class.icu_77::UnicodeString", ptr %3, i32 0, i32 1
  %5 = getelementptr inbounds nuw %struct.anon.0, ptr %4, i32 0, i32 0
  %6 = load i16, ptr %5, align 8, !tbaa !64
  %7 = sext i16 %6 to i32
  %8 = and i32 %7, 31
  %9 = trunc i32 %8 to i16
  store i16 %9, ptr %5, align 8, !tbaa !64
  ret void
}

; Function Attrs: inlinehint mustprogress nounwind uwtable
define linkonce_odr void @_ZN6icu_7713UnicodeString10setToEmptyEv(ptr noundef nonnull align 8 dereferenceable(64) %0) #3 comdat align 2 {
  %2 = alloca ptr, align 8
  store ptr %0, ptr %2, align 8, !tbaa !92
  %3 = load ptr, ptr %2, align 8
  %4 = getelementptr inbounds nuw %"class.icu_77::UnicodeString", ptr %3, i32 0, i32 1
  %5 = getelementptr inbounds nuw %struct.anon.0, ptr %4, i32 0, i32 0
  store i16 2, ptr %5, align 8, !tbaa !64
  ret void
}

; Function Attrs: inlinehint mustprogress nounwind uwtable
define linkonce_odr noundef signext i8 @_ZNK6icu_7713UnicodeString7isBogusEv(ptr noundef nonnull align 8 dereferenceable(64) %0) #3 comdat align 2 {
  %2 = alloca ptr, align 8
  store ptr %0, ptr %2, align 8, !tbaa !92
  %3 = load ptr, ptr %2, align 8
  %4 = getelementptr inbounds nuw %"class.icu_77::UnicodeString", ptr %3, i32 0, i32 1
  %5 = getelementptr inbounds nuw %struct.anon.0, ptr %4, i32 0, i32 0
  %6 = load i16, ptr %5, align 8, !tbaa !64
  %7 = sext i16 %6 to i32
  %8 = and i32 %7, 1
  %9 = trunc i32 %8 to i8
  ret i8 %9
}

; Function Attrs: inlinehint mustprogress uwtable
define linkonce_odr noundef ptr @_ZNK6icu_777UVectorixEi(ptr noundef nonnull align 8 dereferenceable(40) %0, i32 noundef %1) #7 comdat align 2 {
  %3 = alloca ptr, align 8
  %4 = alloca i32, align 4
  store ptr %0, ptr %3, align 8, !tbaa !146
  store i32 %1, ptr %4, align 4, !tbaa !57
  %5 = load ptr, ptr %3, align 8
  %6 = load i32, ptr %4, align 4, !tbaa !57
  %7 = call noundef ptr @_ZNK6icu_777UVector9elementAtEi(ptr noundef nonnull align 8 dereferenceable(40) %5, i32 noundef %6)
  ret ptr %7
}

; Function Attrs: inlinehint mustprogress uwtable
define linkonce_odr noundef nonnull align 8 dereferenceable(64) ptr @_ZN6icu_7713UnicodeString6removeEv(ptr noundef nonnull align 8 dereferenceable(64) %0) #7 comdat align 2 {
  %2 = alloca ptr, align 8
  store ptr %0, ptr %2, align 8, !tbaa !92
  %3 = load ptr, ptr %2, align 8
  %4 = call noundef signext i8 @_ZNK6icu_7713UnicodeString7isBogusEv(ptr noundef nonnull align 8 dereferenceable(64) %3)
  %5 = icmp ne i8 %4, 0
  br i1 %5, label %6, label %7

6:                                                ; preds = %1
  call void @_ZN6icu_7713UnicodeString10setToEmptyEv(ptr noundef nonnull align 8 dereferenceable(64) %3)
  br label %8

7:                                                ; preds = %1
  call void @_ZN6icu_7713UnicodeString13setZeroLengthEv(ptr noundef nonnull align 8 dereferenceable(64) %3)
  br label %8

8:                                                ; preds = %7, %6
  ret ptr %3
}

; Function Attrs: inlinehint mustprogress uwtable
define linkonce_odr noundef ptr @_ZNK6icu_7720CollationDataBuilder18getConditionalCE32Ei(ptr noundef nonnull align 8 dereferenceable(640) %0, i32 noundef %1) #7 comdat align 2 {
  %3 = alloca ptr, align 8
  %4 = alloca i32, align 4
  store ptr %0, ptr %3, align 8, !tbaa !13
  store i32 %1, ptr %4, align 4, !tbaa !57
  %5 = load ptr, ptr %3, align 8
  %6 = getelementptr inbounds nuw %"class.icu_77::CollationDataBuilder", ptr %5, i32 0, i32 7
  %7 = load i32, ptr %4, align 4, !tbaa !57
  %8 = call noundef ptr @_ZNK6icu_777UVectorixEi(ptr noundef nonnull align 8 dereferenceable(40) %6, i32 noundef %7)
  ret ptr %8
}

; Function Attrs: inlinehint mustprogress nounwind uwtable
define linkonce_odr noundef ptr @_ZNK6icu_7713UnicodeString9getBufferEv(ptr noundef nonnull align 8 dereferenceable(64) %0) #3 comdat align 2 {
  %2 = alloca ptr, align 8
  %3 = alloca ptr, align 8
  store ptr %0, ptr %3, align 8, !tbaa !92
  %4 = load ptr, ptr %3, align 8
  %5 = getelementptr inbounds nuw %"class.icu_77::UnicodeString", ptr %4, i32 0, i32 1
  %6 = getelementptr inbounds nuw %struct.anon.0, ptr %5, i32 0, i32 0
  %7 = load i16, ptr %6, align 8, !tbaa !64
  %8 = sext i16 %7 to i32
  %9 = and i32 %8, 17
  %10 = icmp ne i32 %9, 0
  br i1 %10, label %11, label %12

11:                                               ; preds = %1
  store ptr null, ptr %2, align 8
  br label %27

12:                                               ; preds = %1
  %13 = getelementptr inbounds nuw %"class.icu_77::UnicodeString", ptr %4, i32 0, i32 1
  %14 = getelementptr inbounds nuw %struct.anon.0, ptr %13, i32 0, i32 0
  %15 = load i16, ptr %14, align 8, !tbaa !64
  %16 = sext i16 %15 to i32
  %17 = and i32 %16, 2
  %18 = icmp ne i32 %17, 0
  br i1 %18, label %19, label %23

19:                                               ; preds = %12
  %20 = getelementptr inbounds nuw %"class.icu_77::UnicodeString", ptr %4, i32 0, i32 1
  %21 = getelementptr inbounds nuw %struct.anon, ptr %20, i32 0, i32 1
  %22 = getelementptr inbounds [27 x i16], ptr %21, i64 0, i64 0
  store ptr %22, ptr %2, align 8
  br label %27

23:                                               ; preds = %12
  %24 = getelementptr inbounds nuw %"class.icu_77::UnicodeString", ptr %4, i32 0, i32 1
  %25 = getelementptr inbounds nuw %struct.anon.0, ptr %24, i32 0, i32 3
  %26 = load ptr, ptr %25, align 8, !tbaa !64
  store ptr %26, ptr %2, align 8
  br label %27

27:                                               ; preds = %23, %19, %11
  %28 = load ptr, ptr %2, align 8
  ret ptr %28
}

; Function Attrs: mustprogress uwtable
define void @_ZN6icu_7720CollationDataBuilder13clearContextsEv(ptr noundef nonnull align 8 dereferenceable(640) %0) #4 align 2 {
  %2 = alloca ptr, align 8
  store ptr %0, ptr %2, align 8, !tbaa !13
  %3 = load ptr, ptr %2, align 8
  %4 = getelementptr inbounds nuw %"class.icu_77::CollationDataBuilder", ptr %3, i32 0, i32 9
  %5 = call noundef nonnull align 8 dereferenceable(64) ptr @_ZN6icu_7713UnicodeString6removeEv(ptr noundef nonnull align 8 dereferenceable(64) %4)
  %6 = getelementptr inbounds nuw %"class.icu_77::CollationDataBuilder", ptr %3, i32 0, i32 10
  %7 = load i32, ptr %6, align 8, !tbaa !122
  %8 = add nsw i32 %7, 1
  store i32 %8, ptr %6, align 8, !tbaa !122
  ret void
}

; Function Attrs: inlinehint mustprogress uwtable
define linkonce_odr noundef ptr @_ZNK6icu_7720CollationDataBuilder25getConditionalCE32ForCE32Ej(ptr noundef nonnull align 8 dereferenceable(640) %0, i32 noundef %1) #7 comdat align 2 {
  %3 = alloca ptr, align 8
  %4 = alloca i32, align 4
  store ptr %0, ptr %3, align 8, !tbaa !13
  store i32 %1, ptr %4, align 4, !tbaa !57
  %5 = load ptr, ptr %3, align 8
  %6 = load i32, ptr %4, align 4, !tbaa !57
  %7 = call noundef i32 @_ZN6icu_779Collation13indexFromCE32Ej(i32 noundef %6)
  %8 = call noundef ptr @_ZNK6icu_7720CollationDataBuilder18getConditionalCE32Ei(ptr noundef nonnull align 8 dereferenceable(640) %5, i32 noundef %7)
  ret ptr %8
}

; Function Attrs: inlinehint mustprogress nounwind uwtable
define linkonce_odr noundef i32 @_ZN6icu_779Collation13indexFromCE32Ej(i32 noundef %0) #3 comdat align 2 {
  %2 = alloca i32, align 4
  store i32 %0, ptr %2, align 4, !tbaa !57
  %3 = load i32, ptr %2, align 4, !tbaa !57
  %4 = lshr i32 %3, 13
  ret i32 %4
}

; Function Attrs: inlinehint mustprogress nounwind uwtable
define internal noundef signext i8 @_ZL9U_FAILURE10UErrorCode(i32 noundef %0) #3 {
  %2 = alloca i32, align 4
  store i32 %0, ptr %2, align 4, !tbaa !97
  %3 = load i32, ptr %2, align 4, !tbaa !97
  %4 = icmp sgt i32 %3, 0
  %5 = zext i1 %4 to i8
  ret i8 %5
}

; Function Attrs: mustprogress uwtable
define noundef i32 @_ZN6icu_7728DataBuilderCollationIterator22getCE32FromBuilderDataEjR10UErrorCode(ptr noundef nonnull align 8 dereferenceable(828) %0, i32 noundef %1, ptr noundef nonnull align 4 dereferenceable(4) %2) unnamed_addr #4 align 2 {
  %4 = alloca i32, align 4
  %5 = alloca ptr, align 8
  %6 = alloca i32, align 4
  %7 = alloca ptr, align 8
  %8 = alloca i32, align 4
  %9 = alloca ptr, align 8
  %10 = alloca i32, align 4
  store ptr %0, ptr %5, align 8, !tbaa !11
  store i32 %1, ptr %6, align 4, !tbaa !57
  store ptr %2, ptr %7, align 8, !tbaa !8
  %11 = load ptr, ptr %5, align 8
  %12 = load ptr, ptr %7, align 8, !tbaa !8
  %13 = load i32, ptr %12, align 4, !tbaa !97
  %14 = call noundef signext i8 @_ZL9U_FAILURE10UErrorCode(i32 noundef %13)
  %15 = icmp ne i8 %14, 0
  br i1 %15, label %16, label %17

16:                                               ; preds = %3
  store i32 0, ptr %4, align 4
  br label %93

17:                                               ; preds = %3
  %18 = load i32, ptr %6, align 4, !tbaa !57
  %19 = and i32 %18, 256
  %20 = icmp ne i32 %19, 0
  br i1 %20, label %21, label %30

21:                                               ; preds = %17
  call void @llvm.lifetime.start.p0(i64 4, ptr %8) #11
  %22 = load i32, ptr %6, align 4, !tbaa !57
  %23 = call noundef i32 @_ZN6icu_779Collation13indexFromCE32Ej(i32 noundef %22)
  store i32 %23, ptr %8, align 4, !tbaa !57
  %24 = getelementptr inbounds nuw %"class.icu_77::DataBuilderCollationIterator", ptr %11, i32 0, i32 2
  %25 = load ptr, ptr %24, align 8, !tbaa !54
  %26 = getelementptr inbounds nuw %"class.icu_77::CollationDataBuilder", ptr %25, i32 0, i32 4
  %27 = load ptr, ptr %26, align 8, !tbaa !99
  %28 = load i32, ptr %8, align 4, !tbaa !57
  %29 = call i32 @utrie2_get32_77(ptr noundef %27, i32 noundef %28)
  store i32 %29, ptr %4, align 4
  call void @llvm.lifetime.end.p0(i64 4, ptr %8) #11
  br label %93

30:                                               ; preds = %17
  call void @llvm.lifetime.start.p0(i64 8, ptr %9) #11
  %31 = getelementptr inbounds nuw %"class.icu_77::DataBuilderCollationIterator", ptr %11, i32 0, i32 2
  %32 = load ptr, ptr %31, align 8, !tbaa !54
  %33 = load i32, ptr %6, align 4, !tbaa !57
  %34 = call noundef ptr @_ZNK6icu_7720CollationDataBuilder25getConditionalCE32ForCE32Ej(ptr noundef nonnull align 8 dereferenceable(640) %32, i32 noundef %33)
  store ptr %34, ptr %9, align 8, !tbaa !9
  %35 = load ptr, ptr %9, align 8, !tbaa !9
  %36 = icmp eq ptr %35, null
  br i1 %36, label %37, label %39

37:                                               ; preds = %30
  %38 = load ptr, ptr %7, align 8, !tbaa !8
  store i32 5, ptr %38, align 4, !tbaa !97
  store i32 0, ptr %4, align 4
  store i32 1, ptr %10, align 4
  br label %92

39:                                               ; preds = %30
  %40 = load ptr, ptr %9, align 8, !tbaa !9
  %41 = getelementptr inbounds nuw %"struct.icu_77::ConditionalCE32", ptr %40, i32 0, i32 4
  %42 = load i32, ptr %41, align 8, !tbaa !119
  %43 = icmp eq i32 %42, 1
  br i1 %43, label %53, label %44

44:                                               ; preds = %39
  %45 = load ptr, ptr %9, align 8, !tbaa !9
  %46 = getelementptr inbounds nuw %"struct.icu_77::ConditionalCE32", ptr %45, i32 0, i32 5
  %47 = load i32, ptr %46, align 4, !tbaa !121
  %48 = getelementptr inbounds nuw %"class.icu_77::DataBuilderCollationIterator", ptr %11, i32 0, i32 2
  %49 = load ptr, ptr %48, align 8, !tbaa !54
  %50 = getelementptr inbounds nuw %"class.icu_77::CollationDataBuilder", ptr %49, i32 0, i32 10
  %51 = load i32, ptr %50, align 8, !tbaa !122
  %52 = icmp ne i32 %47, %51
  br i1 %52, label %53, label %88

53:                                               ; preds = %44, %39
  %54 = getelementptr inbounds nuw %"class.icu_77::DataBuilderCollationIterator", ptr %11, i32 0, i32 2
  %55 = load ptr, ptr %54, align 8, !tbaa !54
  %56 = load ptr, ptr %9, align 8, !tbaa !9
  %57 = load ptr, ptr %7, align 8, !tbaa !8
  %58 = call noundef i32 @_ZN6icu_7720CollationDataBuilder12buildContextEPNS_15ConditionalCE32ER10UErrorCode(ptr noundef nonnull align 8 dereferenceable(640) %55, ptr noundef %56, ptr noundef nonnull align 4 dereferenceable(4) %57)
  %59 = load ptr, ptr %9, align 8, !tbaa !9
  %60 = getelementptr inbounds nuw %"struct.icu_77::ConditionalCE32", ptr %59, i32 0, i32 4
  store i32 %58, ptr %60, align 8, !tbaa !119
  %61 = load ptr, ptr %7, align 8, !tbaa !8
  %62 = load i32, ptr %61, align 4, !tbaa !97
  %63 = icmp eq i32 %62, 15
  br i1 %63, label %64, label %75

64:                                               ; preds = %53
  %65 = load ptr, ptr %7, align 8, !tbaa !8
  store i32 0, ptr %65, align 4, !tbaa !97
  %66 = getelementptr inbounds nuw %"class.icu_77::DataBuilderCollationIterator", ptr %11, i32 0, i32 2
  %67 = load ptr, ptr %66, align 8, !tbaa !54
  call void @_ZN6icu_7720CollationDataBuilder13clearContextsEv(ptr noundef nonnull align 8 dereferenceable(640) %67)
  %68 = getelementptr inbounds nuw %"class.icu_77::DataBuilderCollationIterator", ptr %11, i32 0, i32 2
  %69 = load ptr, ptr %68, align 8, !tbaa !54
  %70 = load ptr, ptr %9, align 8, !tbaa !9
  %71 = load ptr, ptr %7, align 8, !tbaa !8
  %72 = call noundef i32 @_ZN6icu_7720CollationDataBuilder12buildContextEPNS_15ConditionalCE32ER10UErrorCode(ptr noundef nonnull align 8 dereferenceable(640) %69, ptr noundef %70, ptr noundef nonnull align 4 dereferenceable(4) %71)
  %73 = load ptr, ptr %9, align 8, !tbaa !9
  %74 = getelementptr inbounds nuw %"struct.icu_77::ConditionalCE32", ptr %73, i32 0, i32 4
  store i32 %72, ptr %74, align 8, !tbaa !119
  br label %75

75:                                               ; preds = %64, %53
  %76 = getelementptr inbounds nuw %"class.icu_77::DataBuilderCollationIterator", ptr %11, i32 0, i32 2
  %77 = load ptr, ptr %76, align 8, !tbaa !54
  %78 = getelementptr inbounds nuw %"class.icu_77::CollationDataBuilder", ptr %77, i32 0, i32 10
  %79 = load i32, ptr %78, align 8, !tbaa !122
  %80 = load ptr, ptr %9, align 8, !tbaa !9
  %81 = getelementptr inbounds nuw %"struct.icu_77::ConditionalCE32", ptr %80, i32 0, i32 5
  store i32 %79, ptr %81, align 4, !tbaa !121
  %82 = getelementptr inbounds nuw %"class.icu_77::DataBuilderCollationIterator", ptr %11, i32 0, i32 2
  %83 = load ptr, ptr %82, align 8, !tbaa !54
  %84 = getelementptr inbounds nuw %"class.icu_77::CollationDataBuilder", ptr %83, i32 0, i32 9
  %85 = call noundef ptr @_ZNK6icu_7713UnicodeString9getBufferEv(ptr noundef nonnull align 8 dereferenceable(64) %84)
  %86 = getelementptr inbounds nuw %"class.icu_77::DataBuilderCollationIterator", ptr %11, i32 0, i32 3
  %87 = getelementptr inbounds nuw %"struct.icu_77::CollationData", ptr %86, i32 0, i32 3
  store ptr %85, ptr %87, align 8, !tbaa !96
  br label %88

88:                                               ; preds = %75, %44
  %89 = load ptr, ptr %9, align 8, !tbaa !9
  %90 = getelementptr inbounds nuw %"struct.icu_77::ConditionalCE32", ptr %89, i32 0, i32 4
  %91 = load i32, ptr %90, align 8, !tbaa !119
  store i32 %91, ptr %4, align 4
  store i32 1, ptr %10, align 4
  br label %92

92:                                               ; preds = %88, %37
  call void @llvm.lifetime.end.p0(i64 8, ptr %9) #11
  br label %93

93:                                               ; preds = %92, %21, %16
  %94 = load i32, ptr %4, align 4
  ret i32 %94
}