; Function Attrs: mustprogress uwtable
define noundef i32 @_ZN6icu_7728DataBuilderCollationIterator22getCE32FromBuilderDataEjR10UErrorCode(ptr noundef nonnull align 8 captures(none) dereferenceable(828) %0, i32 noundef %1, ptr noundef nonnull align 4 dereferenceable(4) %2) unnamed_addr #6 align 2 {
  %4 = load i32, ptr %2, align 4, !tbaa !76
  %5 = icmp slt i32 %4, 1
  br i1 %5, label %6, label %64

6:                                                ; preds = %3
  %7 = and i32 %1, 256
  %.not21 = icmp eq i32 %7, 0
  br i1 %.not21, label %15, label %8

8:                                                ; preds = %6
  %9 = lshr i32 %1, 13
  %10 = getelementptr inbounds nuw i8, ptr %0, i64 392
  %11 = load ptr, ptr %10, align 8, !tbaa !69
  %12 = getelementptr inbounds nuw i8, ptr %11, i64 32
  %13 = load ptr, ptr %12, align 8, !tbaa !80
  %14 = tail call i32 @utrie2_get32_77(ptr noundef %13, i32 noundef %9)
  br label %64

15:                                               ; preds = %6
  %16 = getelementptr inbounds nuw i8, ptr %0, i64 392
  %17 = load ptr, ptr %16, align 8, !tbaa !69
  %18 = lshr i32 %1, 13
  %19 = getelementptr inbounds nuw i8, ptr %17, i64 104
  %20 = tail call noundef ptr @_ZNK6icu_777UVector9elementAtEi(ptr noundef nonnull align 8 dereferenceable(40) %19, i32 noundef %18)
  %21 = icmp eq ptr %20, null
  br i1 %21, label %22, label %23

22:                                               ; preds = %15
  store i32 5, ptr %2, align 4, !tbaa !76
  br label %64

23:                                               ; preds = %15
  %24 = getelementptr inbounds nuw i8, ptr %20, i64 80
  %25 = load i32, ptr %24, align 8, !tbaa !92
  %26 = icmp eq i32 %25, 1
  %.pre = load ptr, ptr %16, align 8, !tbaa !69
  br i1 %26, label %32, label %27

27:                                               ; preds = %23
  %28 = getelementptr inbounds nuw i8, ptr %20, i64 84
  %29 = load i32, ptr %28, align 4, !tbaa !94
  %30 = getelementptr inbounds nuw i8, ptr %.pre, i64 408
  %31 = load i32, ptr %30, align 8, !tbaa !95
  %.not22 = icmp eq i32 %29, %31
  br i1 %.not22, label %64, label %32

32:                                               ; preds = %27, %23
  %33 = tail call noundef i32 @_ZN6icu_7720CollationDataBuilder12buildContextEPNS_15ConditionalCE32ER10UErrorCode(ptr noundef nonnull align 8 dereferenceable(640) %.pre, ptr noundef nonnull %20, ptr noundef nonnull align 4 dereferenceable(4) %2)
  store i32 %33, ptr %24, align 8, !tbaa !92
  %34 = load i32, ptr %2, align 4, !tbaa !76
  %35 = icmp eq i32 %34, 15
  br i1 %35, label %36, label %47

36:                                               ; preds = %32
  store i32 0, ptr %2, align 4, !tbaa !76
  %37 = load ptr, ptr %16, align 8, !tbaa !69
  %38 = getelementptr inbounds nuw i8, ptr %37, i64 352
  %39 = load i16, ptr %38, align 8, !tbaa !74
  %40 = and i16 %39, 1
  %.not.i.i = icmp eq i16 %40, 0
  %41 = and i16 %39, 30
  %storemerge.i.i = select i1 %.not.i.i, i16 %41, i16 2
  store i16 %storemerge.i.i, ptr %38, align 8, !tbaa !74
  %42 = getelementptr inbounds nuw i8, ptr %37, i64 408
  %43 = load i32, ptr %42, align 8, !tbaa !95
  %44 = add nsw i32 %43, 1
  store i32 %44, ptr %42, align 8, !tbaa !95
  %45 = load ptr, ptr %16, align 8, !tbaa !69
  %46 = tail call noundef i32 @_ZN6icu_7720CollationDataBuilder12buildContextEPNS_15ConditionalCE32ER10UErrorCode(ptr noundef nonnull align 8 dereferenceable(640) %45, ptr noundef nonnull %20, ptr noundef nonnull align 4 dereferenceable(4) %2)
  store i32 %46, ptr %24, align 8, !tbaa !92
  br label %47

47:                                               ; preds = %36, %32
  %48 = phi i32 [ %46, %36 ], [ %33, %32 ]
  %49 = load ptr, ptr %16, align 8, !tbaa !69
  %50 = getelementptr inbounds nuw i8, ptr %49, i64 408
  %51 = load i32, ptr %50, align 8, !tbaa !95
  %52 = getelementptr inbounds nuw i8, ptr %20, i64 84
  store i32 %51, ptr %52, align 4, !tbaa !94
  %53 = getelementptr inbounds nuw i8, ptr %49, i64 352
  %54 = load i16, ptr %53, align 8, !tbaa !74
  %55 = and i16 %54, 17
  %.not.i = icmp eq i16 %55, 0
  br i1 %.not.i, label %56, label %_ZNK6icu_7713UnicodeString9getBufferEv.exit

56:                                               ; preds = %47
  %57 = and i16 %54, 2
  %.not2.i = icmp eq i16 %57, 0
  br i1 %.not2.i, label %60, label %58

58:                                               ; preds = %56
  %59 = getelementptr inbounds nuw i8, ptr %49, i64 354
  br label %_ZNK6icu_7713UnicodeString9getBufferEv.exit

60:                                               ; preds = %56
  %61 = getelementptr inbounds nuw i8, ptr %49, i64 368
  %62 = load ptr, ptr %61, align 8, !tbaa !74
  br label %_ZNK6icu_7713UnicodeString9getBufferEv.exit

_ZNK6icu_7713UnicodeString9getBufferEv.exit:      ; preds = %47, %58, %60
  %.0.i = phi ptr [ %59, %58 ], [ %62, %60 ], [ null, %47 ]
  %63 = getelementptr inbounds nuw i8, ptr %0, i64 424
  store ptr %.0.i, ptr %63, align 8, !tbaa !75
  br label %64

64:                                               ; preds = %27, %_ZNK6icu_7713UnicodeString9getBufferEv.exit, %22, %3, %8
  %.0 = phi i32 [ %14, %8 ], [ 0, %3 ], [ 0, %22 ], [ %48, %_ZNK6icu_7713UnicodeString9getBufferEv.exit ], [ %25, %27 ]
  ret i32 %.0
}